V.row {\u000a  width: 100%; }\u000a  .row:before, .row:after {\u000a    content: " ";\u000a    display: table; }\u000a    .row:after {\u000a      clear: both; }\u000a[class^="col-"]:first-child {\u000a  margin-left: 0; }\u000a\u000a  .col-1-2 {\u000a    float: left;\u000a    width: 48.5%;\u000a    margin-left: 3%; }\u000a
p1
.